target datalayout = "e-m:e-p270:32:32-p271:32:32-p272:64:64-i64:64-i128:128-f80:128-n8:16:32:64-S128"
target triple = "x86_64-pc-linux-gnu"

%struct.dasm_State = type { i64, ptr, ptr, i64, ptr, i64, ptr, ptr, i64, i32, i32, [1 x %struct.dasm_Section] }
%struct.dasm_Section = type { ptr, ptr, i64, i32, i32, i32 }

; Function Attrs: nounwind uwtable
define hidden void @dasm_growpc(ptr noundef %0, i32 noundef %1) #0 {
  %3 = alloca ptr, align 8
  %4 = alloca i32, align 4
  %5 = alloca ptr, align 8
  %6 = alloca i64, align 8
  %7 = alloca i64, align 8
  %8 = alloca i64, align 8
  store ptr %0, ptr %3, align 8
  store i32 %1, ptr %4, align 4
  %9 = load ptr, ptr %3, align 8
  %10 = load ptr, ptr %9, align 8
  store ptr %10, ptr %5, align 8
  %11 = load ptr, ptr %5, align 8
  %12 = getelementptr inbounds %struct.dasm_State, ptr %11, i32 0, i32 5
  %13 = load i64, ptr %12, align 8
  store i64 %13, ptr %6, align 8
  br label %14

14:                                               ; preds = %2
  %15 = load ptr, ptr %5, align 8
  %16 = getelementptr inbounds %struct.dasm_State, ptr %15, i32 0, i32 5
  %17 = load i64, ptr %16, align 8
  store i64 %17, ptr %7, align 8
  %18 = load i32, ptr %4, align 4
  %19 = zext i32 %18 to i64
  %20 = mul i64 %19, 4
  store i64 %20, ptr %8, align 8
  %21 = load i64, ptr %7, align 8
  %22 = load i64, ptr %8, align 8
  %23 = icmp ult i64 %21, %22
  br i1 %23, label %24, label %48

24:                                               ; preds = %14
  %25 = load i64, ptr %7, align 8
  %26 = icmp ult i64 %25, 16
  br i1 %26, label %27, label %28

27:                                               ; preds = %24
  store i64 16, ptr %7, align 8
  br label %28

28:                                               ; preds = %27, %24
  br label %29

29:                                               ; preds = %33, %28
  %30 = load i64, ptr %7, align 8
  %31 = load i64, ptr %8, align 8
  %32 = icmp ult i64 %30, %31
  br i1 %32, label %33, label %37

33:                                               ; preds = %29
  %34 = load i64, ptr %7, align 8
  %35 = load i64, ptr %7, align 8
  %36 = add i64 %35, %34
  store i64 %36, ptr %7, align 8
  br label %29

37:                                               ; preds = %29
  %38 = load ptr, ptr %5, align 8
  %39 = getelementptr inbounds %struct.dasm_State, ptr %38, i32 0, i32 4
  %40 = load ptr, ptr %39, align 8
  %41 = load i64, ptr %7, align 8
  %42 = call ptr @_erealloc(ptr noundef %40, i64 noundef %41) #12
  %43 = load ptr, ptr %5, align 8
  %44 = getelementptr inbounds %struct.dasm_State, ptr %43, i32 0, i32 4
  store ptr %42, ptr %44, align 8
  %45 = load i64, ptr %7, align 8
  %46 = load ptr, ptr %5, align 8
  %47 = getelementptr inbounds %struct.dasm_State, ptr %46, i32 0, i32 5
  store i64 %45, ptr %47, align 8
  br label %48

48:                                               ; preds = %37, %14
  br label %49

49:                                               ; preds = %48
  %50 = load ptr, ptr %5, align 8
  %51 = getelementptr inbounds %struct.dasm_State, ptr %50, i32 0, i32 4
  %52 = load ptr, ptr %51, align 8
  %53 = load i64, ptr %6, align 8
  %54 = getelementptr inbounds i8, ptr %52, i64 %53
  %55 = load ptr, ptr %5, align 8
  %56 = getelementptr inbounds %struct.dasm_State, ptr %55, i32 0, i32 5
  %57 = load i64, ptr %56, align 8
  %58 = load i64, ptr %6, align 8
  %59 = sub i64 %57, %58
  call void @llvm.memset.p0.i64(ptr align 1 %54, i8 0, i64 %59, i1 false)
  ret void
}