; Function Attrs: nounwind uwtable
define hidden void @dasm_growpc(ptr nocapture noundef readonly %0, i32 noundef %1) local_unnamed_addr #1 {
  %3 = load ptr, ptr %0, align 8
  %4 = getelementptr inbounds i8, ptr %3, i64 40
  %5 = load i64, ptr %4, align 8
  %6 = zext i32 %1 to i64
  %7 = shl nuw nsw i64 %6, 2
  %8 = icmp ult i64 %5, %7
  br i1 %8, label %9, label %._crit_edge

._crit_edge:                                      ; preds = %2
  %.phi.trans.insert = getelementptr inbounds i8, ptr %3, i64 32
  %.pre = load ptr, ptr %.phi.trans.insert, align 8
  br label %17

9:                                                ; preds = %2
  %spec.store.select = tail call i64 @llvm.umax.i64(i64 %5, i64 16)
  br label %10

10:                                               ; preds = %10, %9
  %.0 = phi i64 [ %spec.store.select, %9 ], [ %12, %10 ]
  %11 = icmp ult i64 %.0, %7
  %12 = shl nuw nsw i64 %.0, 1
  br i1 %11, label %10, label %13

13:                                               ; preds = %10
  %14 = getelementptr inbounds i8, ptr %3, i64 32
  %15 = load ptr, ptr %14, align 8
  %16 = tail call ptr @_erealloc(ptr noundef %15, i64 noundef %.0) #23
  store ptr %16, ptr %14, align 8
  store i64 %.0, ptr %4, align 8
  br label %17

17:                                               ; preds = %._crit_edge, %13
  %18 = phi i64 [ %5, %._crit_edge ], [ %.0, %13 ]
  %19 = phi ptr [ %.pre, %._crit_edge ], [ %16, %13 ]
  %20 = getelementptr inbounds i8, ptr %19, i64 %5
  %21 = sub i64 %18, %5
  tail call void @llvm.memset.p0.i64(ptr align 1 %20, i8 0, i64 %21, i1 false)
  ret void
}